; Function Attrs: mustprogress nofree nounwind uwtable
define dso_local void @_ZN10bindexplib9WriteFileEP8_IO_FILE(ptr noundef nonnull readonly align 8 dereferenceable(128) %0, ptr noundef captures(none) %1) local_unnamed_addr #7 align 2 {
  %3 = tail call i64 @fwrite(ptr nonnull @.str.5, i64 9, i64 1, ptr %1)
  %4 = getelementptr inbounds nuw i8, ptr %0, i64 72
  %5 = load ptr, ptr %4, align 8, !tbaa !56
  %6 = getelementptr inbounds nuw i8, ptr %0, i64 56
  %.not18 = icmp eq ptr %5, %6
  br i1 %.not18, label %._crit_edge, label %.lr.ph

._crit_edge:                                      ; preds = %.lr.ph, %2
  %7 = getelementptr inbounds nuw i8, ptr %0, i64 24
  %8 = load ptr, ptr %7, align 8, !tbaa !56
  %9 = getelementptr inbounds nuw i8, ptr %0, i64 8
  %.not1720 = icmp eq ptr %8, %9
  br i1 %.not1720, label %._crit_edge24, label %.lr.ph23

.lr.ph:                                           ; preds = %2, %.lr.ph
  %.sroa.014.019 = phi ptr [ %13, %.lr.ph ], [ %5, %2 ]
  %10 = getelementptr inbounds nuw i8, ptr %.sroa.014.019, i64 32
  %11 = load ptr, ptr %10, align 8, !tbaa !23
  %12 = tail call i32 (ptr, ptr, ...) @fprintf(ptr noundef %1, ptr noundef nonnull @.str.6, ptr noundef %11) #21
  %13 = tail call noundef ptr @_ZSt18_Rb_tree_incrementPKSt18_Rb_tree_node_base(ptr noundef %.sroa.014.019) #25
  %.not = icmp eq ptr %13, %6
  br i1 %.not, label %._crit_edge, label %.lr.ph

._crit_edge24:                                    ; preds = %.lr.ph23, %._crit_edge
  ret void

.lr.ph23:                                         ; preds = %._crit_edge, %.lr.ph23
  %.sroa.010.021 = phi ptr [ %17, %.lr.ph23 ], [ %8, %._crit_edge ]
  %14 = getelementptr inbounds nuw i8, ptr %.sroa.010.021, i64 32
  %15 = load ptr, ptr %14, align 8, !tbaa !23
  %16 = tail call i32 (ptr, ptr, ...) @fprintf(ptr noundef %1, ptr noundef nonnull @.str.7, ptr noundef %15) #21
  %17 = tail call noundef ptr @_ZSt18_Rb_tree_incrementPKSt18_Rb_tree_node_base(ptr noundef %.sroa.010.021) #25
  %.not17 = icmp eq ptr %17, %9
  br i1 %.not17, label %._crit_edge24, label %.lr.ph23
}